; Function Attrs: mustprogress uwtable
define void @_Z26grpc_channel_next_get_infoP20grpc_channel_elementPK17grpc_channel_info(ptr noundef %elem, ptr noundef %channel_info) local_unnamed_addr #6 {
entry:
  %add.ptr = getelementptr inbounds i8, ptr %elem, i64 16
  %0 = load ptr, ptr %add.ptr, align 8
  %get_channel_info = getelementptr inbounds i8, ptr %0, i64 96
  %1 = load ptr, ptr %get_channel_info, align 8
  tail call void %1(ptr noundef nonnull %add.ptr, ptr noundef %channel_info)
  ret void
}